; Function Attrs: nounwind uwtable
define internal fastcc noalias nonnull ptr @_init_l_Char_reduceDefault___lambda__1___closed__3() unnamed_addr #0 {
  %1 = load ptr, ptr @l_Char_reduceDefault___lambda__1___closed__2, align 8, !tbaa !10
  tail call void @lean_inc_heartbeat() #4
  %2 = tail call noalias ptr @mi_malloc_small(i64 noundef 16) #4
  %3 = icmp eq ptr %2, null
  br i1 %3, label %4, label %lean_alloc_ctor.exit

4:                                                ; preds = %0
  tail call void @lean_internal_panic_out_of_memory() #5
  unreachable

lean_alloc_ctor.exit:                             ; preds = %0
  %5 = getelementptr inbounds nuw i8, ptr %2, i64 4
  store i32 1, ptr %2, align 4, !tbaa !4
  store i32 65552, ptr %5, align 4
  %6 = getelementptr inbounds nuw i8, ptr %2, i64 8
  store ptr %1, ptr %6, align 8, !tbaa !10
  ret ptr %2
}